target datalayout = "e-m:e-p270:32:32-p271:32:32-p272:64:64-i64:64-i128:128-f80:128-n8:16:32:64-S128"
target triple = "x86_64-pc-linux-gnu"

%struct.lxb_html_tree = type { ptr, ptr, ptr, ptr, ptr, ptr, ptr, %struct.lxb_html_tree_pending_table_t, ptr, i8, i8, i8, i8, i8, i8, ptr, ptr, ptr, i32, i64 }
%struct.lxb_html_tree_pending_table_t = type { ptr, i8 }
%struct.lxb_dom_node = type { %struct.lxb_dom_event_target, i64, i64, i64, ptr, ptr, ptr, ptr, ptr, ptr, ptr, i32, i64 }
%struct.lxb_dom_event_target = type { ptr }
%struct.lexbor_array_t = type { ptr, i64, i64 }

; Function Attrs: nounwind uwtable
define internal zeroext i1 @lxb_html_tag_is_category(i64 noundef %0, i64 noundef %1, i32 noundef %2) #0 {
  %4 = alloca i1, align 1
  %5 = alloca i64, align 8
  %6 = alloca i64, align 8
  %7 = alloca i32, align 4
  store i64 %0, ptr %5, align 8
  store i64 %1, ptr %6, align 8
  store i32 %2, ptr %7, align 4
  %8 = load i64, ptr %5, align 8
  %9 = icmp ult i64 %8, 196
  br i1 %9, label %10, label %22

10:                                               ; preds = %3
  %11 = load i64, ptr %6, align 8
  %12 = icmp ult i64 %11, 8
  br i1 %12, label %13, label %22

13:                                               ; preds = %10
  %14 = load i64, ptr %5, align 8
  %15 = getelementptr inbounds [196 x [8 x i32]], ptr @lxb_html_tag_res_cats, i64 0, i64 %14
  %16 = load i64, ptr %6, align 8
  %17 = getelementptr inbounds [8 x i32], ptr %15, i64 0, i64 %16
  %18 = load i32, ptr %17, align 4
  %19 = load i32, ptr %7, align 4
  %20 = and i32 %18, %19
  %21 = icmp ne i32 %20, 0
  store i1 %21, ptr %4, align 1
  br label %26

22:                                               ; preds = %10, %3
  %23 = load i32, ptr %7, align 4
  %24 = and i32 129, %23
  %25 = icmp ne i32 %24, 0
  store i1 %25, ptr %4, align 1
  br label %26

26:                                               ; preds = %22, %13
  %27 = load i1, ptr %4, align 1
  ret i1 %27
}

; Function Attrs: nounwind uwtable
define hidden ptr @lxb_html_tree_element_in_scope(ptr noundef %0, i64 noundef %1, i64 noundef %2, i32 noundef %3) #0 {
  %5 = alloca ptr, align 8
  %6 = alloca ptr, align 8
  %7 = alloca i64, align 8
  %8 = alloca i64, align 8
  %9 = alloca i32, align 4
  %10 = alloca ptr, align 8
  %11 = alloca i64, align 8
  %12 = alloca ptr, align 8
  store ptr %0, ptr %6, align 8
  store i64 %1, ptr %7, align 8
  store i64 %2, ptr %8, align 8
  store i32 %3, ptr %9, align 4
  %13 = load ptr, ptr %6, align 8
  %14 = getelementptr inbounds %struct.lxb_html_tree, ptr %13, i32 0, i32 4
  %15 = load ptr, ptr %14, align 8
  %16 = getelementptr inbounds %struct.lexbor_array_t, ptr %15, i32 0, i32 2
  %17 = load i64, ptr %16, align 8
  store i64 %17, ptr %11, align 8
  %18 = load ptr, ptr %6, align 8
  %19 = getelementptr inbounds %struct.lxb_html_tree, ptr %18, i32 0, i32 4
  %20 = load ptr, ptr %19, align 8
  %21 = getelementptr inbounds %struct.lexbor_array_t, ptr %20, i32 0, i32 0
  %22 = load ptr, ptr %21, align 8
  store ptr %22, ptr %12, align 8
  br label %23

23:                                               ; preds = %56, %4
  %24 = load i64, ptr %11, align 8
  %25 = icmp ne i64 %24, 0
  br i1 %25, label %26, label %57

26:                                               ; preds = %23
  %27 = load i64, ptr %11, align 8
  %28 = add i64 %27, -1
  store i64 %28, ptr %11, align 8
  %29 = load ptr, ptr %12, align 8
  %30 = load i64, ptr %11, align 8
  %31 = getelementptr inbounds ptr, ptr %29, i64 %30
  %32 = load ptr, ptr %31, align 8
  store ptr %32, ptr %10, align 8
  %33 = load ptr, ptr %10, align 8
  %34 = getelementptr inbounds %struct.lxb_dom_node, ptr %33, i32 0, i32 1
  %35 = load i64, ptr %34, align 8
  %36 = load i64, ptr %7, align 8
  %37 = icmp eq i64 %35, %36
  br i1 %37, label %38, label %46

38:                                               ; preds = %26
  %39 = load ptr, ptr %10, align 8
  %40 = getelementptr inbounds %struct.lxb_dom_node, ptr %39, i32 0, i32 3
  %41 = load i64, ptr %40, align 8
  %42 = load i64, ptr %8, align 8
  %43 = icmp eq i64 %41, %42
  br i1 %43, label %44, label %46

44:                                               ; preds = %38
  %45 = load ptr, ptr %10, align 8
  store ptr %45, ptr %5, align 8
  br label %58

46:                                               ; preds = %38, %26
  %47 = load ptr, ptr %10, align 8
  %48 = getelementptr inbounds %struct.lxb_dom_node, ptr %47, i32 0, i32 1
  %49 = load i64, ptr %48, align 8
  %50 = load ptr, ptr %10, align 8
  %51 = getelementptr inbounds %struct.lxb_dom_node, ptr %50, i32 0, i32 3
  %52 = load i64, ptr %51, align 8
  %53 = load i32, ptr %9, align 4
  %54 = call zeroext i1 @lxb_html_tag_is_category(i64 noundef %49, i64 noundef %52, i32 noundef %53)
  br i1 %54, label %55, label %56

55:                                               ; preds = %46
  store ptr null, ptr %5, align 8
  br label %58

56:                                               ; preds = %46
  br label %23

57:                                               ; preds = %23
  store ptr null, ptr %5, align 8
  br label %58

58:                                               ; preds = %57, %55, %44
  %59 = load ptr, ptr %5, align 8
  ret ptr %59
}