; Function Attrs: nofree norecurse nosync nounwind memory(read, inaccessiblemem: none) uwtable
define hidden ptr @lxb_html_tree_element_in_scope(ptr nocapture noundef readonly %0, i64 noundef %1, i64 noundef %2, i32 noundef %3) local_unnamed_addr #7 {
  %5 = getelementptr inbounds i8, ptr %0, i64 32
  %6 = load ptr, ptr %5, align 8
  %7 = getelementptr inbounds i8, ptr %6, i64 16
  %8 = load i64, ptr %7, align 8
  %9 = load ptr, ptr %6, align 8
  %10 = and i32 %3, 129
  br label %11

11:                                               ; preds = %lxb_html_tag_is_category.exit, %4
  %.014 = phi i64 [ %8, %4 ], [ %13, %lxb_html_tag_is_category.exit ]
  %.not = icmp eq i64 %.014, 0
  br i1 %.not, label %28, label %12

12:                                               ; preds = %11
  %13 = add i64 %.014, -1
  %14 = getelementptr inbounds ptr, ptr %9, i64 %13
  %15 = load ptr, ptr %14, align 8
  %16 = getelementptr inbounds i8, ptr %15, i64 8
  %17 = load i64, ptr %16, align 8
  %18 = icmp eq i64 %17, %1
  %19 = getelementptr inbounds i8, ptr %15, i64 24
  %20 = load i64, ptr %19, align 8
  %21 = icmp eq i64 %20, %2
  %or.cond = select i1 %18, i1 %21, i1 false
  br i1 %or.cond, label %28, label %._crit_edge

._crit_edge:                                      ; preds = %12
  %22 = icmp ult i64 %17, 196
  %23 = icmp ult i64 %20, 8
  %or.cond.i = and i1 %22, %23
  br i1 %or.cond.i, label %24, label %lxb_html_tag_is_category.exit

24:                                               ; preds = %._crit_edge
  %25 = getelementptr inbounds [196 x [8 x i32]], ptr @lxb_html_tag_res_cats, i64 0, i64 %17, i64 %20
  %26 = load i32, ptr %25, align 4
  %27 = and i32 %26, %3
  br label %lxb_html_tag_is_category.exit

lxb_html_tag_is_category.exit:                    ; preds = %._crit_edge, %24
  %.0.in.i = phi i32 [ %27, %24 ], [ %10, %._crit_edge ]
  %.0.i.not = icmp eq i32 %.0.in.i, 0
  br i1 %.0.i.not, label %11, label %28

28:                                               ; preds = %12, %11, %lxb_html_tag_is_category.exit
  %.0 = phi ptr [ null, %lxb_html_tag_is_category.exit ], [ null, %11 ], [ %15, %12 ]
  ret ptr %.0
}